; ModuleID = 'source-C-CXX/37/1250.c'
source_filename = "source-C-CXX/37/1250.c"
target datalayout = "e-m:e-p270:32:32-p271:32:32-p272:64:64-i64:64-f80:128-n8:16:32:64-S128"
target triple = "x86_64-pc-linux-gnu"

@.str = private unnamed_addr constant [3 x i8] c"%d\00", align 1
@.str.1 = private unnamed_addr constant [4 x i8] c"%lf\00", align 1
@.str.2 = private unnamed_addr constant [6 x i8] c"%.5f\0A\00", align 1

; Function Attrs: nofree nounwind sspstrong uwtable
define dso_local void @main() local_unnamed_addr #0 {
  %1 = alloca i32, align 4
  %2 = alloca i32, align 4
  %3 = alloca [1001 x double], align 16
  %4 = bitcast i32* %1 to i8*
  call void @llvm.lifetime.start.p0i8(i64 4, i8* nonnull %4) #4
  %5 = bitcast i32* %2 to i8*
  call void @llvm.lifetime.start.p0i8(i64 4, i8* nonnull %5) #4
  %6 = bitcast [1001 x double]* %3 to i8*
  call void @llvm.lifetime.start.p0i8(i64 8008, i8* nonnull %6) #4
  %7 = call i32 (i8*, ...) @__isoc99_scanf(i8* getelementptr inbounds ([3 x i8], [3 x i8]* @.str, i64 0, i64 0), i32* nonnull %1)
  %8 = load i32, i32* %1, align 4, !tbaa !5
  %9 = getelementptr inbounds [1001 x double], [1001 x double]* %3, i64 0, i64 0
  %10 = icmp sgt i32 %8, 0
  br i1 %10, label %11, label %54

11:                                               ; preds = %0, %39
  %12 = call i32 (i8*, ...) @__isoc99_scanf(i8* getelementptr inbounds ([3 x i8], [3 x i8]* @.str, i64 0, i64 0), i32* nonnull %2)
  %13 = load i32, i32* %2, align 4, !tbaa !5
  %14 = sext i32 %13 to i64
  %15 = getelementptr inbounds [1001 x double], [1001 x double]* %3, i64 0, i64 %14
  %16 = icmp sgt i32 %13, 0
  br i1 %16, label %21, label %17

17:                                               ; preds = %21, %11
  %18 = phi i32 [ %13, %11 ], [ %25, %21 ]
  %19 = phi double* [ %15, %11 ], [ %27, %21 ]
  %20 = icmp ult double* %9, %19
  br i1 %20, label %29, label %39

21:                                               ; preds = %11, %21
  %22 = phi double* [ %24, %21 ], [ %9, %11 ]
  %23 = call i32 (i8*, ...) @__isoc99_scanf(i8* getelementptr inbounds ([4 x i8], [4 x i8]* @.str.1, i64 0, i64 0), double* nonnull %22)
  %24 = getelementptr inbounds double, double* %22, i64 1
  %25 = load i32, i32* %2, align 4, !tbaa !5
  %26 = sext i32 %25 to i64
  %27 = getelementptr inbounds [1001 x double], [1001 x double]* %3, i64 0, i64 %26
  %28 = icmp ult double* %24, %27
  br i1 %28, label %21, label %17, !llvm.loop !9

29:                                               ; preds = %17, %29
  %30 = phi double* [ %37, %29 ], [ %9, %17 ]
  %31 = phi <2 x double> [ %36, %29 ], [ zeroinitializer, %17 ]
  %32 = load double, double* %30, align 8, !tbaa !11
  %33 = fmul double %32, %32
  %34 = insertelement <2 x double> poison, double %33, i32 0
  %35 = insertelement <2 x double> %34, double %32, i32 1
  %36 = fadd <2 x double> %31, %35
  %37 = getelementptr inbounds double, double* %30, i64 1
  %38 = icmp ult double* %37, %19
  br i1 %38, label %29, label %39, !llvm.loop !13

39:                                               ; preds = %29, %17
  %40 = phi <2 x double> [ zeroinitializer, %17 ], [ %36, %29 ]
  %41 = sitofp i32 %18 to double
  %42 = insertelement <2 x double> poison, double %41, i32 0
  %43 = shufflevector <2 x double> %42, <2 x double> poison, <2 x i32> zeroinitializer
  %44 = fdiv <2 x double> %40, %43
  %45 = fmul <2 x double> %44, %44
  %46 = shufflevector <2 x double> %45, <2 x double> poison, <2 x i32> <i32 1, i32 undef>
  %47 = fsub <2 x double> %44, %46
  %48 = extractelement <2 x double> %47, i32 0
  %49 = call double @sqrt(double %48) #4
  %50 = call i32 (i8*, ...) @printf(i8* nonnull dereferenceable(1) getelementptr inbounds ([6 x i8], [6 x i8]* @.str.2, i64 0, i64 0), double %49)
  %51 = load i32, i32* %1, align 4, !tbaa !5
  %52 = add nsw i32 %51, -1
  store i32 %52, i32* %1, align 4, !tbaa !5
  %53 = icmp sgt i32 %51, 1
  br i1 %53, label %11, label %54, !llvm.loop !14

54:                                               ; preds = %39, %0
  call void @llvm.lifetime.end.p0i8(i64 8008, i8* nonnull %6) #4
  call void @llvm.lifetime.end.p0i8(i64 4, i8* nonnull %5) #4
  call void @llvm.lifetime.end.p0i8(i64 4, i8* nonnull %4) #4
  ret void
}

; Function Attrs: argmemonly mustprogress nofree nosync nounwind willreturn
declare void @llvm.lifetime.start.p0i8(i64 immarg, i8* nocapture) #1

; Function Attrs: nofree nounwind
declare noundef i32 @__isoc99_scanf(i8* nocapture noundef readonly, ...) local_unnamed_addr #2

; Function Attrs: mustprogress nofree nounwind willreturn
declare double @sqrt(double) local_unnamed_addr #3

; Function Attrs: nofree nounwind
declare noundef i32 @printf(i8* nocapture noundef readonly, ...) local_unnamed_addr #2

; Function Attrs: argmemonly mustprogress nofree nosync nounwind willreturn
declare void @llvm.lifetime.end.p0i8(i64 immarg, i8* nocapture) #1


!llvm.module.flags = !{!0, !1, !2, !3}
!llvm.ident = !{!4}

!0 = !{i32 1, !"wchar_size", i32 4}
!1 = !{i32 7, !"PIC Level", i32 2}
!2 = !{i32 7, !"PIE Level", i32 2}
!3 = !{i32 7, !"uwtable", i32 1}
!4 = !{!"clang version 13.0.0"}
!5 = !{!6, !6, i64 0}
!6 = !{!"int", !7, i64 0}
!7 = !{!"omnipotent char", !8, i64 0}
!8 = !{!"Simple C/C++ TBAA"}
!9 = distinct !{!9, !10}
!10 = !{!"llvm.loop.mustprogress"}
!11 = !{!12, !12, i64 0}
!12 = !{!"double", !7, i64 0}
!13 = distinct !{!13, !10}
!14 = distinct !{!14, !10}
